target datalayout = "e-m:e-p270:32:32-p271:32:32-p272:64:64-i64:64-i128:128-f80:128-n8:16:32:64-S128"
target triple = "x86_64-pc-linux-gnu"

%struct.H5FL_seq_head_t = type { %struct.H5FL_blk_head_t, i64 }
%struct.H5FL_blk_head_t = type { i8, i32, i32, i64, ptr, ptr }
%struct.H5FL_reg_head_t = type { i8, i32, i32, ptr, i64, ptr }
%struct.H5FS_t = type { %struct.H5C_cache_entry_t, i64, i64, i64, i64, i32, i16, i32, i32, i32, i64, i64, i64, i64, i32, i64, i64, ptr, i8, i32, i8, i8, i32, i64, i64, i64, ptr }
%struct.H5C_cache_entry_t = type { ptr, i64, i64, ptr, i8, ptr, i8, i8, i8, i8, i32, i8, i8, i8, i8, i8, i32, ptr, i32, i32, i32, i32, i32, i8, i8, ptr, ptr, ptr, ptr, ptr, ptr, i8, i32, i8, i64, ptr, i64, i64, i32, i8, i32, i32, i8, ptr, ptr, ptr }
%struct.H5FS_sinfo_t = type { %struct.H5C_cache_entry_t, ptr, i8, i32, i64, i64, i64, i64, i32, i32, i32, ptr, ptr }
%struct.H5FS_bin_t = type { i64, i64, i64, ptr }

@.str.2 = private unnamed_addr constant [98 x i8] c"generated/home/dtcxzyw/WorkSpace/Projects/compilers/llvm-opt-benchmark/bench/hdf5/hdf5/src/H5FS.c\00", align 1
@H5E_FSPACE_g = external global i64, align 8
@H5E_CANTCLOSEOBJ_g = external global i64, align 8
@H5E_CANTDEC_g = external global i64, align 8
@.str.20 = private unnamed_addr constant [52 x i8] c"unable to decrement ref. count on free space header\00", align 1
@H5_H5FS_bin_t_seq_free_list = external global %struct.H5FL_seq_head_t, align 8
@__func__.H5FS__sinfo_dest = private unnamed_addr constant [17 x i8] c"H5FS__sinfo_dest\00", align 1
@.str.32 = private unnamed_addr constant [40 x i8] c"can't destroy section merging skip list\00", align 1
@H5_H5FS_sinfo_t_reg_free_list = external global %struct.H5FL_reg_head_t, align 8

; Function Attrs: nounwind uwtable
define i32 @H5FS__sinfo_dest(ptr noundef %0) #0 {
  %2 = alloca ptr, align 8
  %3 = alloca i32, align 4
  %4 = alloca i32, align 4
  %5 = alloca i8, align 1
  store ptr %0, ptr %2, align 8
  store i32 0, ptr %4, align 4
  store i8 0, ptr %5, align 1
  store i32 0, ptr %3, align 4
  br label %6

6:                                                ; preds = %41, %1
  %7 = load i32, ptr %3, align 4
  %8 = load ptr, ptr %2, align 8
  %9 = getelementptr inbounds %struct.H5FS_sinfo_t, ptr %8, i32 0, i32 3
  %10 = load i32, ptr %9, align 4
  %11 = icmp ult i32 %7, %10
  br i1 %11, label %12, label %44

12:                                               ; preds = %6
  %13 = load ptr, ptr %2, align 8
  %14 = getelementptr inbounds %struct.H5FS_sinfo_t, ptr %13, i32 0, i32 1
  %15 = load ptr, ptr %14, align 8
  %16 = load i32, ptr %3, align 4
  %17 = zext i32 %16 to i64
  %18 = getelementptr inbounds %struct.H5FS_bin_t, ptr %15, i64 %17
  %19 = getelementptr inbounds %struct.H5FS_bin_t, ptr %18, i32 0, i32 3
  %20 = load ptr, ptr %19, align 8
  %21 = icmp ne ptr %20, null
  br i1 %21, label %22, label %40

22:                                               ; preds = %12
  %23 = load ptr, ptr %2, align 8
  %24 = getelementptr inbounds %struct.H5FS_sinfo_t, ptr %23, i32 0, i32 1
  %25 = load ptr, ptr %24, align 8
  %26 = load i32, ptr %3, align 4
  %27 = zext i32 %26 to i64
  %28 = getelementptr inbounds %struct.H5FS_bin_t, ptr %25, i64 %27
  %29 = getelementptr inbounds %struct.H5FS_bin_t, ptr %28, i32 0, i32 3
  %30 = load ptr, ptr %29, align 8
  %31 = load ptr, ptr %2, align 8
  %32 = call i32 @H5SL_destroy(ptr noundef %30, ptr noundef @H5FS__sinfo_free_node_cb, ptr noundef %31)
  %33 = load ptr, ptr %2, align 8
  %34 = getelementptr inbounds %struct.H5FS_sinfo_t, ptr %33, i32 0, i32 1
  %35 = load ptr, ptr %34, align 8
  %36 = load i32, ptr %3, align 4
  %37 = zext i32 %36 to i64
  %38 = getelementptr inbounds %struct.H5FS_bin_t, ptr %35, i64 %37
  %39 = getelementptr inbounds %struct.H5FS_bin_t, ptr %38, i32 0, i32 3
  store ptr null, ptr %39, align 8
  br label %40

40:                                               ; preds = %22, %12
  br label %41

41:                                               ; preds = %40
  %42 = load i32, ptr %3, align 4
  %43 = add i32 %42, 1
  store i32 %43, ptr %3, align 4
  br label %6

44:                                               ; preds = %6
  %45 = load ptr, ptr %2, align 8
  %46 = getelementptr inbounds %struct.H5FS_sinfo_t, ptr %45, i32 0, i32 1
  %47 = load ptr, ptr %46, align 8
  %48 = call ptr @H5FL_seq_free(ptr noundef @H5_H5FS_bin_t_seq_free_list, ptr noundef %47)
  %49 = load ptr, ptr %2, align 8
  %50 = getelementptr inbounds %struct.H5FS_sinfo_t, ptr %49, i32 0, i32 1
  store ptr %48, ptr %50, align 8
  %51 = load ptr, ptr %2, align 8
  %52 = getelementptr inbounds %struct.H5FS_sinfo_t, ptr %51, i32 0, i32 12
  %53 = load ptr, ptr %52, align 8
  %54 = icmp ne ptr %53, null
  br i1 %54, label %55, label %77

55:                                               ; preds = %44
  %56 = load ptr, ptr %2, align 8
  %57 = getelementptr inbounds %struct.H5FS_sinfo_t, ptr %56, i32 0, i32 12
  %58 = load ptr, ptr %57, align 8
  %59 = call i32 @H5SL_close(ptr noundef %58)
  %60 = icmp slt i32 %59, 0
  br i1 %60, label %61, label %76

61:                                               ; preds = %55
  br label %62

62:                                               ; preds = %61
  br label %63

63:                                               ; preds = %62
  br label %64

64:                                               ; preds = %63
  %65 = load i64, ptr @H5E_FSPACE_g, align 8
  %66 = load i64, ptr @H5E_CANTCLOSEOBJ_g, align 8
  %67 = call i32 (ptr, ptr, i32, i64, i64, ptr, ...) @H5E_printf_stack(ptr noundef @.str.2, ptr noundef @__func__.H5FS__sinfo_dest, i32 noundef 1105, i64 noundef %65, i64 noundef %66, ptr noundef @.str.32)
  br label %68

68:                                               ; preds = %64
  store i8 1, ptr %5, align 1
  %69 = load i8, ptr %5, align 1
  %70 = trunc i8 %69 to i1
  %71 = zext i1 %70 to i8
  store i8 %71, ptr %5, align 1
  br label %72

72:                                               ; preds = %68
  br label %73

73:                                               ; preds = %72
  store i32 -1, ptr %4, align 4
  br label %107

74:                                               ; No predecessors!
  br label %75

75:                                               ; preds = %74
  br label %76

76:                                               ; preds = %75, %55
  br label %77

77:                                               ; preds = %76, %44
  %78 = load ptr, ptr %2, align 8
  %79 = getelementptr inbounds %struct.H5FS_sinfo_t, ptr %78, i32 0, i32 11
  %80 = load ptr, ptr %79, align 8
  %81 = getelementptr inbounds %struct.H5FS_t, ptr %80, i32 0, i32 17
  store ptr null, ptr %81, align 8
  %82 = load ptr, ptr %2, align 8
  %83 = getelementptr inbounds %struct.H5FS_sinfo_t, ptr %82, i32 0, i32 11
  %84 = load ptr, ptr %83, align 8
  %85 = call i32 @H5FS__decr(ptr noundef %84)
  %86 = icmp slt i32 %85, 0
  br i1 %86, label %87, label %102

87:                                               ; preds = %77
  br label %88

88:                                               ; preds = %87
  br label %89

89:                                               ; preds = %88
  br label %90

90:                                               ; preds = %89
  %91 = load i64, ptr @H5E_FSPACE_g, align 8
  %92 = load i64, ptr @H5E_CANTDEC_g, align 8
  %93 = call i32 (ptr, ptr, i32, i64, i64, ptr, ...) @H5E_printf_stack(ptr noundef @.str.2, ptr noundef @__func__.H5FS__sinfo_dest, i32 noundef 1113, i64 noundef %91, i64 noundef %92, ptr noundef @.str.20)
  br label %94

94:                                               ; preds = %90
  store i8 1, ptr %5, align 1
  %95 = load i8, ptr %5, align 1
  %96 = trunc i8 %95 to i1
  %97 = zext i1 %96 to i8
  store i8 %97, ptr %5, align 1
  br label %98

98:                                               ; preds = %94
  br label %99

99:                                               ; preds = %98
  store i32 -1, ptr %4, align 4
  br label %107

100:                                              ; No predecessors!
  br label %101

101:                                              ; preds = %100
  br label %102

102:                                              ; preds = %101, %77
  %103 = load ptr, ptr %2, align 8
  %104 = getelementptr inbounds %struct.H5FS_sinfo_t, ptr %103, i32 0, i32 11
  store ptr null, ptr %104, align 8
  %105 = load ptr, ptr %2, align 8
  %106 = call ptr @H5FL_reg_free(ptr noundef @H5_H5FS_sinfo_t_reg_free_list, ptr noundef %105)
  store ptr %106, ptr %2, align 8
  br label %107

107:                                              ; preds = %102, %99, %73
  %108 = load i32, ptr %4, align 4
  ret i32 %108
}