; Function Attrs: nounwind uwtable
define range(i32 -1, 1) i32 @H5FS__sinfo_dest(ptr noundef %0) local_unnamed_addr #0 {
  %2 = getelementptr inbounds i8, ptr %0, i64 260
  %3 = load i32, ptr %2, align 4
  %.not25 = icmp eq i32 %3, 0
  br i1 %.not25, label %._crit_edge, label %.lr.ph

.lr.ph:                                           ; preds = %1
  %4 = getelementptr inbounds i8, ptr %0, i64 248
  br label %5

5:                                                ; preds = %.lr.ph, %14
  %6 = phi i32 [ %3, %.lr.ph ], [ %15, %14 ]
  %indvars.iv = phi i64 [ 0, %.lr.ph ], [ %indvars.iv.next, %14 ]
  %7 = load ptr, ptr %4, align 8
  %8 = getelementptr inbounds %struct.H5FS_bin_t, ptr %7, i64 %indvars.iv, i32 3
  %9 = load ptr, ptr %8, align 8
  %.not23 = icmp eq ptr %9, null
  br i1 %.not23, label %14, label %10

10:                                               ; preds = %5
  %11 = tail call i32 @H5SL_destroy(ptr noundef nonnull %9, ptr noundef nonnull @H5FS__sinfo_free_node_cb, ptr noundef nonnull %0) #5
  %12 = load ptr, ptr %4, align 8
  %13 = getelementptr inbounds %struct.H5FS_bin_t, ptr %12, i64 %indvars.iv, i32 3
  store ptr null, ptr %13, align 8
  %.pre = load i32, ptr %2, align 4
  br label %14

14:                                               ; preds = %5, %10
  %15 = phi i32 [ %6, %5 ], [ %.pre, %10 ]
  %indvars.iv.next = add nuw nsw i64 %indvars.iv, 1
  %16 = zext i32 %15 to i64
  %17 = icmp ult i64 %indvars.iv.next, %16
  br i1 %17, label %5, label %._crit_edge

._crit_edge:                                      ; preds = %14, %1
  %18 = getelementptr inbounds i8, ptr %0, i64 248
  %19 = load ptr, ptr %18, align 8
  %20 = tail call ptr @H5FL_seq_free(ptr noundef nonnull @H5_H5FS_bin_t_seq_free_list, ptr noundef %19) #5
  store ptr %20, ptr %18, align 8
  %21 = getelementptr inbounds i8, ptr %0, i64 320
  %22 = load ptr, ptr %21, align 8
  %.not = icmp eq ptr %22, null
  br i1 %.not, label %30, label %23

23:                                               ; preds = %._crit_edge
  %24 = tail call i32 @H5SL_close(ptr noundef nonnull %22) #5
  %25 = icmp slt i32 %24, 0
  br i1 %25, label %26, label %30

26:                                               ; preds = %23
  %27 = load i64, ptr @H5E_FSPACE_g, align 8
  %28 = load i64, ptr @H5E_CANTCLOSEOBJ_g, align 8
  %29 = tail call i32 (ptr, ptr, i32, i64, i64, ptr, ...) @H5E_printf_stack(ptr noundef nonnull @.str.2, ptr noundef nonnull @__func__.H5FS__sinfo_dest, i32 noundef 1105, i64 noundef %27, i64 noundef %28, ptr noundef nonnull @.str.32) #5
  br label %43

30:                                               ; preds = %23, %._crit_edge
  %31 = getelementptr inbounds i8, ptr %0, i64 312
  %32 = load ptr, ptr %31, align 8
  %33 = getelementptr inbounds i8, ptr %32, i64 360
  store ptr null, ptr %33, align 8
  %34 = load ptr, ptr %31, align 8
  %35 = tail call i32 @H5FS__decr(ptr noundef %34)
  %36 = icmp slt i32 %35, 0
  br i1 %36, label %37, label %41

37:                                               ; preds = %30
  %38 = load i64, ptr @H5E_FSPACE_g, align 8
  %39 = load i64, ptr @H5E_CANTDEC_g, align 8
  %40 = tail call i32 (ptr, ptr, i32, i64, i64, ptr, ...) @H5E_printf_stack(ptr noundef nonnull @.str.2, ptr noundef nonnull @__func__.H5FS__sinfo_dest, i32 noundef 1113, i64 noundef %38, i64 noundef %39, ptr noundef nonnull @.str.20) #5
  br label %43

41:                                               ; preds = %30
  store ptr null, ptr %31, align 8
  %42 = tail call ptr @H5FL_reg_free(ptr noundef nonnull @H5_H5FS_sinfo_t_reg_free_list, ptr noundef nonnull %0) #5
  br label %43

43:                                               ; preds = %41, %37, %26
  %.0 = phi i32 [ -1, %26 ], [ -1, %37 ], [ 0, %41 ]
  ret i32 %.0
}